target datalayout = "e-m:e-p270:32:32-p271:32:32-p272:64:64-i64:64-i128:128-f80:128-n8:16:32:64-S128"
target triple = "x86_64-pc-linux-gnu"

%struct.lg4ff_device = type { i16, i16, [16 x %struct.lg4ff_effect_state], [4 x %struct.lg4ff_slot], i32, i32, i32, i32, i32, i32, i32, ptr, i8, ptr, [256 x i8], ptr, i8 }
%struct.lg4ff_effect_state = type { %union.SDL_HapticEffect, i64, i64, i64, i32, i64, i64, i32, i32, i32, double, i32, i8 }
%union.SDL_HapticEffect = type { %struct.SDL_HapticCustom, [16 x i8] }
%struct.SDL_HapticCustom = type { i16, %struct.SDL_HapticDirection, i32, i16, i16, i16, i8, i16, i16, ptr, i16, i16, i16, i16 }
%struct.SDL_HapticDirection = type { i8, [3 x i32] }
%struct.lg4ff_slot = type { i32, %struct.lg4ff_effect_parameters, [7 x i8], i32, i8, i32 }
%struct.lg4ff_effect_parameters = type { i32, i32, i32, i32, i32, i32 }
%struct.SDL_HIDAPI_HapticDevice = type { ptr, ptr, ptr, ptr }

@.str.11 = private unnamed_addr constant [34 x i8] c"Failed sending autocenter command\00", align 1
@.str.12 = private unnamed_addr constant [42 x i8] c"Failed sending autocenter disable command\00", align 1
@.str.13 = private unnamed_addr constant [44 x i8] c"Failed sending autocenter magnitude command\00", align 1
@.str.14 = private unnamed_addr constant [41 x i8] c"Failed sending autocenter enable command\00", align 1

; Function Attrs: nounwind uwtable
define internal zeroext i1 @SDL_HIDAPI_HapticDriverLg4ff_SetAutocenter(ptr noundef %0, i32 noundef %1) #0 {
  %3 = alloca i1, align 1
  %4 = alloca ptr, align 8
  %5 = alloca i32, align 4
  %6 = alloca ptr, align 8
  %7 = alloca [7 x i8], align 1
  %8 = alloca i8, align 1
  %9 = alloca i32, align 4
  %10 = alloca i32, align 4
  %11 = alloca i32, align 4
  %12 = alloca i32, align 4
  %13 = alloca i32, align 4
  store ptr %0, ptr %4, align 8
  store i32 %1, ptr %5, align 4
  call void @llvm.lifetime.start.p0(i64 8, ptr %6) #6
  %14 = load ptr, ptr %4, align 8
  %15 = getelementptr inbounds nuw %struct.SDL_HIDAPI_HapticDevice, ptr %14, i32 0, i32 3
  %16 = load ptr, ptr %15, align 8
  store ptr %16, ptr %6, align 8
  call void @llvm.lifetime.start.p0(i64 7, ptr %7) #6
  call void @llvm.memset.p0.i64(ptr align 1 %7, i8 0, i64 7, i1 false)
  call void @llvm.lifetime.start.p0(i64 1, ptr %8) #6
  %17 = load i32, ptr %5, align 4
  %18 = icmp slt i32 %17, 0
  br i1 %18, label %19, label %20

19:                                               ; preds = %2
  store i32 0, ptr %5, align 4
  br label %20

20:                                               ; preds = %19, %2
  %21 = load i32, ptr %5, align 4
  %22 = icmp sgt i32 %21, 100
  br i1 %22, label %23, label %24

23:                                               ; preds = %20
  store i32 100, ptr %5, align 4
  br label %24

24:                                               ; preds = %23, %20
  %25 = load ptr, ptr %6, align 8
  %26 = getelementptr inbounds nuw %struct.lg4ff_device, ptr %25, i32 0, i32 15
  %27 = load ptr, ptr %26, align 8
  call void @SDL_LockMutex_REAL(ptr noundef %27)
  %28 = load ptr, ptr %6, align 8
  %29 = getelementptr inbounds nuw %struct.lg4ff_device, ptr %28, i32 0, i32 16
  %30 = load i8, ptr %29, align 8, !range !5, !noundef !6
  %31 = trunc i8 %30 to i1
  br i1 %31, label %32, label %70

32:                                               ; preds = %24
  call void @llvm.lifetime.start.p0(i64 4, ptr %9) #6
  %33 = load i32, ptr %5, align 4
  %34 = mul nsw i32 90, %33
  %35 = sdiv i32 %34, 100
  store i32 %35, ptr %9, align 4
  %36 = getelementptr inbounds [7 x i8], ptr %7, i64 0, i64 0
  store i8 -2, ptr %36, align 1
  %37 = getelementptr inbounds [7 x i8], ptr %7, i64 0, i64 1
  store i8 3, ptr %37, align 1
  %38 = load i32, ptr %9, align 4
  %39 = trunc i32 %38 to i16
  %40 = zext i16 %39 to i32
  %41 = ashr i32 %40, 14
  %42 = trunc i32 %41 to i8
  %43 = getelementptr inbounds [7 x i8], ptr %7, i64 0, i64 2
  store i8 %42, ptr %43, align 1
  %44 = load i32, ptr %9, align 4
  %45 = trunc i32 %44 to i16
  %46 = zext i16 %45 to i32
  %47 = ashr i32 %46, 14
  %48 = trunc i32 %47 to i8
  %49 = getelementptr inbounds [7 x i8], ptr %7, i64 0, i64 3
  store i8 %48, ptr %49, align 1
  %50 = load i32, ptr %9, align 4
  %51 = trunc i32 %50 to i8
  %52 = getelementptr inbounds [7 x i8], ptr %7, i64 0, i64 4
  store i8 %51, ptr %52, align 1
  %53 = load ptr, ptr %6, align 8
  %54 = getelementptr inbounds nuw %struct.lg4ff_device, ptr %53, i32 0, i32 11
  %55 = load ptr, ptr %54, align 8
  %56 = getelementptr inbounds [7 x i8], ptr %7, i64 0, i64 0
  %57 = call zeroext i1 @SDL_SendJoystickEffect_REAL(ptr noundef %55, ptr noundef %56, i32 noundef 7)
  %58 = zext i1 %57 to i8
  store i8 %58, ptr %8, align 1
  %59 = load i8, ptr %8, align 1, !range !5, !noundef !6
  %60 = trunc i8 %59 to i1
  br i1 %60, label %66, label %61

61:                                               ; preds = %32
  %62 = load ptr, ptr %6, align 8
  %63 = getelementptr inbounds nuw %struct.lg4ff_device, ptr %62, i32 0, i32 15
  %64 = load ptr, ptr %63, align 8
  call void @SDL_UnlockMutex_REAL(ptr noundef %64)
  %65 = call zeroext i1 (ptr, ...) @SDL_SetError_REAL(ptr noundef @.str.11)
  store i1 false, ptr %3, align 1
  store i32 1, ptr %10, align 4
  br label %67

66:                                               ; preds = %32
  store i32 0, ptr %10, align 4
  br label %67

67:                                               ; preds = %66, %61
  call void @llvm.lifetime.end.p0(i64 4, ptr %9) #6
  %68 = load i32, ptr %10, align 4
  switch i32 %68, label %167 [
    i32 0, label %69
  ]

69:                                               ; preds = %67
  br label %163

70:                                               ; preds = %24
  call void @llvm.lifetime.start.p0(i64 4, ptr %11) #6
  call void @llvm.lifetime.start.p0(i64 4, ptr %12) #6
  call void @llvm.lifetime.start.p0(i64 4, ptr %13) #6
  %71 = load i32, ptr %5, align 4
  %72 = mul nsw i32 65535, %71
  %73 = sdiv i32 %72, 100
  store i32 %73, ptr %13, align 4
  %74 = getelementptr inbounds [7 x i8], ptr %7, i64 0, i64 0
  store i8 -11, ptr %74, align 1
  %75 = load ptr, ptr %6, align 8
  %76 = getelementptr inbounds nuw %struct.lg4ff_device, ptr %75, i32 0, i32 11
  %77 = load ptr, ptr %76, align 8
  %78 = getelementptr inbounds [7 x i8], ptr %7, i64 0, i64 0
  %79 = call zeroext i1 @SDL_SendJoystickEffect_REAL(ptr noundef %77, ptr noundef %78, i32 noundef 7)
  %80 = zext i1 %79 to i8
  store i8 %80, ptr %8, align 1
  %81 = load i8, ptr %8, align 1, !range !5, !noundef !6
  %82 = trunc i8 %81 to i1
  br i1 %82, label %88, label %83

83:                                               ; preds = %70
  %84 = load ptr, ptr %6, align 8
  %85 = getelementptr inbounds nuw %struct.lg4ff_device, ptr %84, i32 0, i32 15
  %86 = load ptr, ptr %85, align 8
  call void @SDL_UnlockMutex_REAL(ptr noundef %86)
  %87 = call zeroext i1 (ptr, ...) @SDL_SetError_REAL(ptr noundef @.str.12)
  store i1 false, ptr %3, align 1
  store i32 1, ptr %10, align 4
  br label %160

88:                                               ; preds = %70
  %89 = load i32, ptr %13, align 4
  %90 = icmp eq i32 %89, 0
  br i1 %90, label %91, label %95

91:                                               ; preds = %88
  %92 = load ptr, ptr %6, align 8
  %93 = getelementptr inbounds nuw %struct.lg4ff_device, ptr %92, i32 0, i32 15
  %94 = load ptr, ptr %93, align 8
  call void @SDL_UnlockMutex_REAL(ptr noundef %94)
  store i1 true, ptr %3, align 1
  store i32 1, ptr %10, align 4
  br label %160

95:                                               ; preds = %88
  %96 = load i32, ptr %13, align 4
  %97 = icmp sle i32 %96, 43690
  br i1 %97, label %98, label %103

98:                                               ; preds = %95
  %99 = load i32, ptr %13, align 4
  %100 = mul nsw i32 12, %99
  store i32 %100, ptr %11, align 4
  %101 = load i32, ptr %13, align 4
  %102 = mul nsw i32 128, %101
  store i32 %102, ptr %12, align 4
  br label %112

103:                                              ; preds = %95
  %104 = load i32, ptr %13, align 4
  %105 = sub nsw i32 %104, 43690
  %106 = mul nsw i32 6, %105
  %107 = add nsw i32 524280, %106
  store i32 %107, ptr %11, align 4
  %108 = load i32, ptr %13, align 4
  %109 = sub nsw i32 %108, 43690
  %110 = mul nsw i32 255, %109
  %111 = add nsw i32 5592320, %110
  store i32 %111, ptr %12, align 4
  br label %112

112:                                              ; preds = %103, %98
  %113 = load i32, ptr %11, align 4
  %114 = lshr i32 %113, 1
  store i32 %114, ptr %11, align 4
  %115 = getelementptr inbounds [7 x i8], ptr %7, i64 0, i64 0
  call void @llvm.memset.p0.i64(ptr align 1 %115, i8 0, i64 7, i1 false)
  %116 = getelementptr inbounds [7 x i8], ptr %7, i64 0, i64 0
  store i8 -2, ptr %116, align 1
  %117 = getelementptr inbounds [7 x i8], ptr %7, i64 0, i64 1
  store i8 13, ptr %117, align 1
  %118 = load i32, ptr %11, align 4
  %119 = udiv i32 %118, 43690
  %120 = trunc i32 %119 to i8
  %121 = getelementptr inbounds [7 x i8], ptr %7, i64 0, i64 2
  store i8 %120, ptr %121, align 1
  %122 = load i32, ptr %11, align 4
  %123 = udiv i32 %122, 43690
  %124 = trunc i32 %123 to i8
  %125 = getelementptr inbounds [7 x i8], ptr %7, i64 0, i64 3
  store i8 %124, ptr %125, align 1
  %126 = load i32, ptr %12, align 4
  %127 = udiv i32 %126, 43690
  %128 = trunc i32 %127 to i8
  %129 = getelementptr inbounds [7 x i8], ptr %7, i64 0, i64 4
  store i8 %128, ptr %129, align 1
  %130 = load ptr, ptr %6, align 8
  %131 = getelementptr inbounds nuw %struct.lg4ff_device, ptr %130, i32 0, i32 11
  %132 = load ptr, ptr %131, align 8
  %133 = getelementptr inbounds [7 x i8], ptr %7, i64 0, i64 0
  %134 = call zeroext i1 @SDL_SendJoystickEffect_REAL(ptr noundef %132, ptr noundef %133, i32 noundef 7)
  %135 = zext i1 %134 to i8
  store i8 %135, ptr %8, align 1
  %136 = load i8, ptr %8, align 1, !range !5, !noundef !6
  %137 = trunc i8 %136 to i1
  br i1 %137, label %143, label %138

138:                                              ; preds = %112
  %139 = load ptr, ptr %6, align 8
  %140 = getelementptr inbounds nuw %struct.lg4ff_device, ptr %139, i32 0, i32 15
  %141 = load ptr, ptr %140, align 8
  call void @SDL_UnlockMutex_REAL(ptr noundef %141)
  %142 = call zeroext i1 (ptr, ...) @SDL_SetError_REAL(ptr noundef @.str.13)
  store i1 false, ptr %3, align 1
  store i32 1, ptr %10, align 4
  br label %160

143:                                              ; preds = %112
  %144 = getelementptr inbounds [7 x i8], ptr %7, i64 0, i64 0
  call void @llvm.memset.p0.i64(ptr align 1 %144, i8 0, i64 7, i1 false)
  %145 = getelementptr inbounds [7 x i8], ptr %7, i64 0, i64 0
  store i8 20, ptr %145, align 1
  %146 = load ptr, ptr %6, align 8
  %147 = getelementptr inbounds nuw %struct.lg4ff_device, ptr %146, i32 0, i32 11
  %148 = load ptr, ptr %147, align 8
  %149 = getelementptr inbounds [7 x i8], ptr %7, i64 0, i64 0
  %150 = call zeroext i1 @SDL_SendJoystickEffect_REAL(ptr noundef %148, ptr noundef %149, i32 noundef 7)
  %151 = zext i1 %150 to i8
  store i8 %151, ptr %8, align 1
  %152 = load i8, ptr %8, align 1, !range !5, !noundef !6
  %153 = trunc i8 %152 to i1
  br i1 %153, label %159, label %154

154:                                              ; preds = %143
  %155 = load ptr, ptr %6, align 8
  %156 = getelementptr inbounds nuw %struct.lg4ff_device, ptr %155, i32 0, i32 15
  %157 = load ptr, ptr %156, align 8
  call void @SDL_UnlockMutex_REAL(ptr noundef %157)
  %158 = call zeroext i1 (ptr, ...) @SDL_SetError_REAL(ptr noundef @.str.14)
  store i1 false, ptr %3, align 1
  store i32 1, ptr %10, align 4
  br label %160

159:                                              ; preds = %143
  store i32 0, ptr %10, align 4
  br label %160

160:                                              ; preds = %159, %154, %138, %91, %83
  call void @llvm.lifetime.end.p0(i64 4, ptr %13) #6
  call void @llvm.lifetime.end.p0(i64 4, ptr %12) #6
  call void @llvm.lifetime.end.p0(i64 4, ptr %11) #6
  %161 = load i32, ptr %10, align 4
  switch i32 %161, label %167 [
    i32 0, label %162
  ]

162:                                              ; preds = %160
  br label %163

163:                                              ; preds = %162, %69
  %164 = load ptr, ptr %6, align 8
  %165 = getelementptr inbounds nuw %struct.lg4ff_device, ptr %164, i32 0, i32 15
  %166 = load ptr, ptr %165, align 8
  call void @SDL_UnlockMutex_REAL(ptr noundef %166)
  store i1 true, ptr %3, align 1
  store i32 1, ptr %10, align 4
  br label %167

167:                                              ; preds = %163, %160, %67
  call void @llvm.lifetime.end.p0(i64 1, ptr %8) #6
  call void @llvm.lifetime.end.p0(i64 7, ptr %7) #6
  call void @llvm.lifetime.end.p0(i64 8, ptr %6) #6
  %168 = load i1, ptr %3, align 1
  ret i1 %168
}