; Function Attrs: nounwind uwtable
define internal noundef zeroext i1 @SDL_HIDAPI_HapticDriverLg4ff_SetAutocenter(ptr noundef readonly captures(none) %0, i32 noundef %1) #0 {
  %3 = alloca [7 x i8], align 1
  %4 = getelementptr inbounds nuw i8, ptr %0, i64 24
  %5 = load ptr, ptr %4, align 8
  call void @llvm.lifetime.start.p0(i64 7, ptr nonnull %3) #8
  call void @llvm.memset.p0.i64(ptr noundef nonnull align 1 dereferenceable(7) %3, i8 0, i64 7, i1 false)
  %spec.store.select = tail call i32 @llvm.smax.i32(i32 %1, i32 0)
  %spec.store.select2 = tail call i32 @llvm.umin.i32(i32 %spec.store.select, i32 100)
  %6 = getelementptr inbounds nuw i8, ptr %5, i64 2944
  %7 = load ptr, ptr %6, align 8
  tail call void @SDL_LockMutex_REAL(ptr noundef %7) #8
  %8 = getelementptr inbounds nuw i8, ptr %5, i64 2952
  %9 = load i8, ptr %8, align 8, !range !7, !noundef !8
  %10 = trunc nuw i8 %9 to i1
  br i1 %10, label %11, label %25

11:                                               ; preds = %2
  %12 = trunc nuw nsw i32 %spec.store.select2 to i16
  %.lhs.trunc = mul nuw nsw i16 %12, 90
  %13 = udiv i16 %.lhs.trunc, 100
  store i8 -2, ptr %3, align 1
  %14 = getelementptr inbounds nuw i8, ptr %3, i64 1
  store i8 3, ptr %14, align 1
  %15 = getelementptr inbounds nuw i8, ptr %3, i64 2
  store i8 0, ptr %15, align 1
  %16 = getelementptr inbounds nuw i8, ptr %3, i64 3
  store i8 0, ptr %16, align 1
  %17 = trunc nuw nsw i16 %13 to i8
  %18 = getelementptr inbounds nuw i8, ptr %3, i64 4
  store i8 %17, ptr %18, align 1
  %19 = getelementptr inbounds nuw i8, ptr %5, i64 2664
  %20 = load ptr, ptr %19, align 8
  %21 = call zeroext i1 @SDL_SendJoystickEffect_REAL(ptr noundef %20, ptr noundef nonnull %3, i32 noundef 7) #8
  br i1 %21, label %.critedge, label %22

22:                                               ; preds = %11
  %23 = load ptr, ptr %6, align 8
  call void @SDL_UnlockMutex_REAL(ptr noundef %23) #8
  %24 = call zeroext i1 (ptr, ...) @SDL_SetError_REAL(ptr noundef nonnull @.str.11) #8
  br label %.thread

25:                                               ; preds = %2
  %26 = mul nuw nsw i32 %spec.store.select2, 65535
  %27 = udiv i32 %26, 100
  store i8 -11, ptr %3, align 1
  %28 = getelementptr inbounds nuw i8, ptr %5, i64 2664
  %29 = load ptr, ptr %28, align 8
  %30 = call zeroext i1 @SDL_SendJoystickEffect_REAL(ptr noundef %29, ptr noundef nonnull %3, i32 noundef 7) #8
  br i1 %30, label %34, label %31

31:                                               ; preds = %25
  %32 = load ptr, ptr %6, align 8
  call void @SDL_UnlockMutex_REAL(ptr noundef %32) #8
  %33 = call zeroext i1 (ptr, ...) @SDL_SetError_REAL(ptr noundef nonnull @.str.12) #8
  br label %.thread

34:                                               ; preds = %25
  %35 = icmp slt i32 %1, 1
  br i1 %35, label %36, label %38

36:                                               ; preds = %34
  %37 = load ptr, ptr %6, align 8
  call void @SDL_UnlockMutex_REAL(ptr noundef %37) #8
  br label %.thread

38:                                               ; preds = %34
  %39 = icmp samesign ult i32 %1, 67
  br i1 %39, label %40, label %43

40:                                               ; preds = %38
  %41 = mul nuw nsw i32 %27, 12
  %42 = shl nuw nsw i32 %27, 7
  br label %49

43:                                               ; preds = %38
  %44 = add nsw i32 %27, -43690
  %45 = mul nuw nsw i32 %44, 6
  %46 = add nuw nsw i32 %45, 524280
  %47 = mul nsw i32 %44, 255
  %48 = add nuw nsw i32 %47, 5592320
  br label %49

49:                                               ; preds = %43, %40
  %.039 = phi i32 [ %41, %40 ], [ %46, %43 ]
  %.038 = phi i32 [ %42, %40 ], [ %48, %43 ]
  %50 = getelementptr inbounds nuw i8, ptr %3, i64 5
  store i16 0, ptr %50, align 1
  store i8 -2, ptr %3, align 1
  %51 = getelementptr inbounds nuw i8, ptr %3, i64 1
  store i8 13, ptr %51, align 1
  %52 = udiv i32 %.039, 87380
  %53 = trunc nuw nsw i32 %52 to i8
  %54 = getelementptr inbounds nuw i8, ptr %3, i64 2
  store i8 %53, ptr %54, align 1
  %55 = getelementptr inbounds nuw i8, ptr %3, i64 3
  store i8 %53, ptr %55, align 1
  %56 = udiv i32 %.038, 43690
  %57 = trunc i32 %56 to i8
  %58 = getelementptr inbounds nuw i8, ptr %3, i64 4
  store i8 %57, ptr %58, align 1
  %59 = load ptr, ptr %28, align 8
  %60 = call zeroext i1 @SDL_SendJoystickEffect_REAL(ptr noundef %59, ptr noundef nonnull %3, i32 noundef 7) #8
  br i1 %60, label %64, label %61

61:                                               ; preds = %49
  %62 = load ptr, ptr %6, align 8
  call void @SDL_UnlockMutex_REAL(ptr noundef %62) #8
  %63 = call zeroext i1 (ptr, ...) @SDL_SetError_REAL(ptr noundef nonnull @.str.13) #8
  br label %.thread

64:                                               ; preds = %49
  %65 = getelementptr inbounds nuw i8, ptr %3, i64 1
  call void @llvm.memset.p0.i64(ptr noundef nonnull align 1 dereferenceable(6) %65, i8 0, i64 6, i1 false)
  store i8 20, ptr %3, align 1
  %66 = load ptr, ptr %28, align 8
  %67 = call zeroext i1 @SDL_SendJoystickEffect_REAL(ptr noundef %66, ptr noundef nonnull %3, i32 noundef 7) #8
  br i1 %67, label %.critedge, label %68

68:                                               ; preds = %64
  %69 = load ptr, ptr %6, align 8
  call void @SDL_UnlockMutex_REAL(ptr noundef %69) #8
  %70 = call zeroext i1 (ptr, ...) @SDL_SetError_REAL(ptr noundef nonnull @.str.14) #8
  br label %.thread

.critedge:                                        ; preds = %64, %11
  %71 = load ptr, ptr %6, align 8
  call void @SDL_UnlockMutex_REAL(ptr noundef %71) #8
  br label %.thread

.thread:                                          ; preds = %31, %61, %68, %36, %22, %.critedge
  %.1 = phi i1 [ true, %.critedge ], [ false, %22 ], [ false, %31 ], [ false, %61 ], [ false, %68 ], [ true, %36 ]
  call void @llvm.lifetime.end.p0(i64 7, ptr nonnull %3) #8
  ret i1 %.1
}